target datalayout = "e-m:e-p270:32:32-p271:32:32-p272:64:64-i64:64-i128:128-f80:128-n8:16:32:64-S128"
target triple = "x86_64-pc-linux-gnu"

@g_assert_poison = external global ptr, align 8
@.str.12 = private unnamed_addr constant [44 x i8] c"src/hotspot/share/classfile/javaClasses.cpp\00", align 1

; Function Attrs: mustprogress nounwind uwtable
define hidden noundef i32 @_ZN23java_lang_VirtualThread26map_state_to_thread_statusEi(i32 noundef %0) #1 align 2 {
  %2 = alloca i32, align 4
  %3 = alloca i32, align 4
  store i32 %0, ptr %2, align 4
  store i32 0, ptr %3, align 4
  %4 = load i32, ptr %2, align 4
  %5 = and i32 %4, -257
  switch i32 %5, label %11 [
    i32 0, label %6
    i32 1, label %7
    i32 2, label %7
    i32 3, label %7
    i32 6, label %7
    i32 9, label %7
    i32 10, label %7
    i32 11, label %7
    i32 4, label %8
    i32 5, label %8
    i32 7, label %9
    i32 8, label %9
    i32 99, label %10
  ]

6:                                                ; preds = %1
  store i32 0, ptr %3, align 4
  br label %15

7:                                                ; preds = %1, %1, %1, %1, %1, %1, %1
  store i32 5, ptr %3, align 4
  br label %15

8:                                                ; preds = %1, %1
  store i32 657, ptr %3, align 4
  br label %15

9:                                                ; preds = %1, %1
  store i32 673, ptr %3, align 4
  br label %15

10:                                               ; preds = %1
  store i32 2, ptr %3, align 4
  br label %15

11:                                               ; preds = %1
  br label %12

12:                                               ; preds = %11
  %13 = load ptr, ptr @g_assert_poison, align 8
  store i8 88, ptr %13, align 1
  call void @_Z28report_should_not_reach_herePKci(ptr noundef @.str.12, i32 noundef 2044) #12
  unreachable

14:                                               ; No predecessors!
  br label %15

15:                                               ; preds = %14, %10, %9, %8, %7, %6
  %16 = load i32, ptr %3, align 4
  ret i32 %16
}