; Function Attrs: mustprogress nounwind uwtable
define hidden noundef range(i32 0, 674) i32 @_ZN23java_lang_VirtualThread26map_state_to_thread_statusEi(i32 noundef %0) local_unnamed_addr #0 align 2 {
  %2 = and i32 %0, -257
  switch i32 %2, label %7 [
    i32 0, label %9
    i32 1, label %3
    i32 2, label %3
    i32 3, label %3
    i32 6, label %3
    i32 9, label %3
    i32 10, label %3
    i32 11, label %3
    i32 4, label %4
    i32 5, label %4
    i32 7, label %5
    i32 8, label %5
    i32 99, label %6
  ]

3:                                                ; preds = %1, %1, %1, %1, %1, %1, %1
  br label %9

4:                                                ; preds = %1, %1
  br label %9

5:                                                ; preds = %1, %1
  br label %9

6:                                                ; preds = %1
  br label %9

7:                                                ; preds = %1
  %8 = load ptr, ptr @g_assert_poison, align 8
  store i8 88, ptr %8, align 1
  tail call void @_Z28report_should_not_reach_herePKci(ptr noundef nonnull @.str.12, i32 noundef 2044) #21
  unreachable

9:                                                ; preds = %1, %6, %5, %4, %3
  %.0 = phi i32 [ 2, %6 ], [ 673, %5 ], [ 657, %4 ], [ 5, %3 ], [ %2, %1 ]
  ret i32 %.0
}